; ModuleID = '21/238.c'
source_filename = "21/238.c"
target datalayout = "e-m:e-p270:32:32-p271:32:32-p272:64:64-i64:64-f80:128-n8:16:32:64-S128"
target triple = "x86_64-pc-linux-gnu"

@.str = private unnamed_addr constant [3 x i8] c"%d\00", align 1
@.str.1 = private unnamed_addr constant [4 x i8] c"%d,\00", align 1

; Function Attrs: noinline nounwind uwtable
define dso_local void @main() #0 {
  %1 = alloca i32, align 4
  %2 = alloca i32, align 4
  %3 = alloca [400 x i32], align 16
  %4 = alloca i32, align 4
  %5 = alloca i32, align 4
  %6 = alloca [400 x i32], align 16
  %7 = alloca i32, align 4
  %8 = alloca i32, align 4
  %9 = alloca float, align 4
  %10 = alloca float, align 4
  %11 = alloca float, align 4
  store i32 0, i32* %4, align 4
  store i32 0, i32* %5, align 4
  store float 0.000000e+00, float* %9, align 4
  store float 0.000000e+00, float* %11, align 4
  %12 = call i32 (i8*, ...) @__isoc99_scanf(i8* getelementptr inbounds ([3 x i8], [3 x i8]* @.str, i64 0, i64 0), i32* %1)
  store i32 0, i32* %2, align 4
  br label %13

13:                                               ; preds = %29, %0
  %14 = load i32, i32* %2, align 4
  %15 = load i32, i32* %1, align 4
  %16 = icmp slt i32 %14, %15
  br i1 %16, label %17, label %32

17:                                               ; preds = %13
  %18 = load i32, i32* %2, align 4
  %19 = sext i32 %18 to i64
  %20 = getelementptr inbounds [400 x i32], [400 x i32]* %3, i64 0, i64 %19
  %21 = call i32 (i8*, ...) @__isoc99_scanf(i8* getelementptr inbounds ([3 x i8], [3 x i8]* @.str, i64 0, i64 0), i32* %20)
  %22 = load float, float* %9, align 4
  %23 = load i32, i32* %2, align 4
  %24 = sext i32 %23 to i64
  %25 = getelementptr inbounds [400 x i32], [400 x i32]* %3, i64 0, i64 %24
  %26 = load i32, i32* %25, align 4
  %27 = sitofp i32 %26 to float
  %28 = fadd float %22, %27
  store float %28, float* %9, align 4
  br label %29

29:                                               ; preds = %17
  %30 = load i32, i32* %2, align 4
  %31 = add nsw i32 %30, 1
  store i32 %31, i32* %2, align 4
  br label %13

32:                                               ; preds = %13
  %33 = load float, float* %9, align 4
  %34 = load i32, i32* %1, align 4
  %35 = sitofp i32 %34 to float
  %36 = fdiv float %33, %35
  store float %36, float* %9, align 4
  store i32 0, i32* %2, align 4
  br label %37

37:                                               ; preds = %78, %32
  %38 = load i32, i32* %2, align 4
  %39 = load i32, i32* %1, align 4
  %40 = icmp slt i32 %38, %39
  br i1 %40, label %41, label %81

41:                                               ; preds = %37
  %42 = load i32, i32* %2, align 4
  %43 = sext i32 %42 to i64
  %44 = getelementptr inbounds [400 x i32], [400 x i32]* %3, i64 0, i64 %43
  %45 = load i32, i32* %44, align 4
  %46 = sitofp i32 %45 to float
  %47 = load float, float* %9, align 4
  %48 = fsub float %46, %47
  store float %48, float* %10, align 4
  %49 = load float, float* %11, align 4
  %50 = fcmp oge float %49, 0.000000e+00
  br i1 %50, label %51, label %62

51:                                               ; preds = %41
  %52 = load float, float* %10, align 4
  %53 = load float, float* %11, align 4
  %54 = fcmp oge float %52, %53
  br i1 %54, label %60, label %55

55:                                               ; preds = %51
  %56 = load float, float* %10, align 4
  %57 = load float, float* %11, align 4
  %58 = fneg float %57
  %59 = fcmp ole float %56, %58
  br i1 %59, label %60, label %62

60:                                               ; preds = %55, %51
  %61 = load float, float* %10, align 4
  store float %61, float* %11, align 4
  br label %77

62:                                               ; preds = %55, %41
  %63 = load float, float* %11, align 4
  %64 = fcmp olt float %63, 0.000000e+00
  br i1 %64, label %65, label %76

65:                                               ; preds = %62
  %66 = load float, float* %10, align 4
  %67 = load float, float* %11, align 4
  %68 = fcmp ole float %66, %67
  br i1 %68, label %74, label %69

69:                                               ; preds = %65
  %70 = load float, float* %10, align 4
  %71 = load float, float* %11, align 4
  %72 = fneg float %71
  %73 = fcmp oge float %70, %72
  br i1 %73, label %74, label %76

74:                                               ; preds = %69, %65
  %75 = load float, float* %10, align 4
  store float %75, float* %11, align 4
  br label %76

76:                                               ; preds = %74, %69, %62
  br label %77

77:                                               ; preds = %76, %60
  br label %78

78:                                               ; preds = %77
  %79 = load i32, i32* %2, align 4
  %80 = add nsw i32 %79, 1
  store i32 %80, i32* %2, align 4
  br label %37

81:                                               ; preds = %37
  store i32 0, i32* %2, align 4
  br label %82

82:                                               ; preds = %113, %81
  %83 = load i32, i32* %2, align 4
  %84 = load i32, i32* %1, align 4
  %85 = icmp slt i32 %83, %84
  br i1 %85, label %86, label %116

86:                                               ; preds = %82
  %87 = load i32, i32* %2, align 4
  %88 = sext i32 %87 to i64
  %89 = getelementptr inbounds [400 x i32], [400 x i32]* %3, i64 0, i64 %88
  %90 = load i32, i32* %89, align 4
  %91 = sitofp i32 %90 to float
  %92 = load float, float* %9, align 4
  %93 = fsub float %91, %92
  store float %93, float* %10, align 4
  %94 = load float, float* %10, align 4
  %95 = load float, float* %11, align 4
  %96 = fcmp oeq float %94, %95
  br i1 %96, label %102, label %97

97:                                               ; preds = %86
  %98 = load float, float* %10, align 4
  %99 = load float, float* %11, align 4
  %100 = fneg float %99
  %101 = fcmp oeq float %98, %100
  br i1 %101, label %102, label %112

102:                                              ; preds = %97, %86
  %103 = load i32, i32* %2, align 4
  %104 = sext i32 %103 to i64
  %105 = getelementptr inbounds [400 x i32], [400 x i32]* %3, i64 0, i64 %104
  %106 = load i32, i32* %105, align 4
  %107 = load i32, i32* %4, align 4
  %108 = sext i32 %107 to i64
  %109 = getelementptr inbounds [400 x i32], [400 x i32]* %6, i64 0, i64 %108
  store i32 %106, i32* %109, align 4
  %110 = load i32, i32* %4, align 4
  %111 = add nsw i32 %110, 1
  store i32 %111, i32* %4, align 4
  br label %112

112:                                              ; preds = %102, %97
  br label %113

113:                                              ; preds = %112
  %114 = load i32, i32* %2, align 4
  %115 = add nsw i32 %114, 1
  store i32 %115, i32* %2, align 4
  br label %82

116:                                              ; preds = %82
  store i32 0, i32* %2, align 4
  br label %117

117:                                              ; preds = %157, %116
  %118 = load i32, i32* %2, align 4
  %119 = load i32, i32* %4, align 4
  %120 = icmp slt i32 %118, %119
  br i1 %120, label %121, label %160

121:                                              ; preds = %117
  store i32 0, i32* %7, align 4
  br label %122

122:                                              ; preds = %153, %121
  %123 = load i32, i32* %7, align 4
  %124 = load i32, i32* %2, align 4
  %125 = icmp slt i32 %123, %124
  br i1 %125, label %126, label %156

126:                                              ; preds = %122
  %127 = load i32, i32* %7, align 4
  %128 = sext i32 %127 to i64
  %129 = getelementptr inbounds [400 x i32], [400 x i32]* %6, i64 0, i64 %128
  %130 = load i32, i32* %129, align 4
  %131 = load i32, i32* %2, align 4
  %132 = sext i32 %131 to i64
  %133 = getelementptr inbounds [400 x i32], [400 x i32]* %6, i64 0, i64 %132
  %134 = load i32, i32* %133, align 4
  %135 = icmp sge i32 %130, %134
  br i1 %135, label %136, label %152

136:                                              ; preds = %126
  %137 = load i32, i32* %7, align 4
  %138 = sext i32 %137 to i64
  %139 = getelementptr inbounds [400 x i32], [400 x i32]* %6, i64 0, i64 %138
  %140 = load i32, i32* %139, align 4
  store i32 %140, i32* %8, align 4
  %141 = load i32, i32* %2, align 4
  %142 = sext i32 %141 to i64
  %143 = getelementptr inbounds [400 x i32], [400 x i32]* %6, i64 0, i64 %142
  %144 = load i32, i32* %143, align 4
  %145 = load i32, i32* %7, align 4
  %146 = sext i32 %145 to i64
  %147 = getelementptr inbounds [400 x i32], [400 x i32]* %6, i64 0, i64 %146
  store i32 %144, i32* %147, align 4
  %148 = load i32, i32* %8, align 4
  %149 = load i32, i32* %2, align 4
  %150 = sext i32 %149 to i64
  %151 = getelementptr inbounds [400 x i32], [400 x i32]* %6, i64 0, i64 %150
  store i32 %148, i32* %151, align 4
  br label %152

152:                                              ; preds = %136, %126
  br label %153

153:                                              ; preds = %152
  %154 = load i32, i32* %7, align 4
  %155 = add nsw i32 %154, 1
  store i32 %155, i32* %7, align 4
  br label %122

156:                                              ; preds = %122
  br label %157

157:                                              ; preds = %156
  %158 = load i32, i32* %2, align 4
  %159 = add nsw i32 %158, 1
  store i32 %159, i32* %2, align 4
  br label %117

160:                                              ; preds = %117
  store i32 0, i32* %2, align 4
  br label %161

161:                                              ; preds = %183, %160
  %162 = load i32, i32* %2, align 4
  %163 = load i32, i32* %4, align 4
  %164 = icmp slt i32 %162, %163
  br i1 %164, label %165, label %186

165:                                              ; preds = %161
  %166 = load i32, i32* %2, align 4
  %167 = load i32, i32* %4, align 4
  %168 = sub nsw i32 %167, 1
  %169 = icmp ne i32 %166, %168
  br i1 %169, label %170, label %176

170:                                              ; preds = %165
  %171 = load i32, i32* %2, align 4
  %172 = sext i32 %171 to i64
  %173 = getelementptr inbounds [400 x i32], [400 x i32]* %6, i64 0, i64 %172
  %174 = load i32, i32* %173, align 4
  %175 = call i32 (i8*, ...) @printf(i8* getelementptr inbounds ([4 x i8], [4 x i8]* @.str.1, i64 0, i64 0), i32 %174)
  br label %182

176:                                              ; preds = %165
  %177 = load i32, i32* %2, align 4
  %178 = sext i32 %177 to i64
  %179 = getelementptr inbounds [400 x i32], [400 x i32]* %6, i64 0, i64 %178
  %180 = load i32, i32* %179, align 4
  %181 = call i32 (i8*, ...) @printf(i8* getelementptr inbounds ([3 x i8], [3 x i8]* @.str, i64 0, i64 0), i32 %180)
  br label %182

182:                                              ; preds = %176, %170
  br label %183

183:                                              ; preds = %182
  %184 = load i32, i32* %2, align 4
  %185 = add nsw i32 %184, 1
  store i32 %185, i32* %2, align 4
  br label %161

186:                                              ; preds = %161
  ret void
}

declare dso_local i32 @__isoc99_scanf(i8*, ...) #1

declare dso_local i32 @printf(i8*, ...) #1


!llvm.module.flags = !{!0}
!llvm.ident = !{!1}

!0 = !{i32 1, !"wchar_size", i32 4}
!1 = !{!"clang version 10.0.0-4ubuntu1 "}
